; Function Attrs: mustprogress nofree norecurse nosync nounwind willreturn memory(argmem: write) uwtable
define hidden void @_ZN6google8protobuf8internal15DynamicMapFieldC2EPKNS0_7MessageE(ptr noundef nonnull writeonly align 8 captures(none) dereferenceable(128) initializes((0, 68), (72, 128)) %0, ptr noundef %1) unnamed_addr #10 align 2 personality ptr @__gxx_personality_v0 {
  %3 = getelementptr inbounds nuw i8, ptr %0, i64 8
  tail call void @llvm.memset.p0.i64(ptr noundef nonnull align 8 dereferenceable(60) %3, i8 0, i64 60, i1 false)
  store ptr getelementptr inbounds nuw inrange(-16, 192) (i8, ptr @_ZTVN6google8protobuf8internal15DynamicMapFieldE, i64 16), ptr %0, align 8, !tbaa !15
  %4 = getelementptr inbounds nuw i8, ptr %0, i64 72
  store i64 0, ptr %4, align 8, !tbaa !50
  %5 = getelementptr inbounds nuw i8, ptr %0, i64 80
  store i64 1, ptr %5, align 8, !tbaa !55
  %6 = getelementptr inbounds nuw i8, ptr %0, i64 88
  store i64 0, ptr %6, align 8, !tbaa !56
  %7 = getelementptr inbounds nuw i8, ptr %0, i64 96
  store i64 1, ptr %7, align 8, !tbaa !57
  %8 = getelementptr inbounds nuw i8, ptr %0, i64 104
  store ptr @_ZN6google8protobuf8internal17kGlobalEmptyTableE, ptr %8, align 8, !tbaa !58
  %9 = getelementptr inbounds nuw i8, ptr %0, i64 112
  store ptr null, ptr %9, align 8, !tbaa !59
  %10 = getelementptr inbounds nuw i8, ptr %0, i64 120
  store ptr %1, ptr %10, align 8, !tbaa !60
  ret void
}